target datalayout = "e-m:e-p270:32:32-p271:32:32-p272:64:64-i64:64-i128:128-f80:128-n8:16:32:64-S128"
target triple = "x86_64-unknown-linux-gnu"

%"class.absl::FixedArray" = type { %"class.absl::FixedArray<testing::ThrowingValue<testing::TypeSpec::kEverythingThrows>, 25>::Storage" }
%"class.absl::FixedArray<testing::ThrowingValue<testing::TypeSpec::kEverythingThrows>, 25>::Storage" = type { %"class.absl::FixedArray<testing::ThrowingValue<testing::TypeSpec::kEverythingThrows>, 25>::NonEmptyInlinedStorage", %"class.absl::container_internal::CompressedTuple", ptr }
%"class.absl::FixedArray<testing::ThrowingValue<testing::TypeSpec::kEverythingThrows>, 25>::NonEmptyInlinedStorage" = type { [100 x i8] }
%"class.absl::container_internal::CompressedTuple" = type { %"struct.absl::container_internal::internal_compressed_tuple::CompressedTupleImpl" }
%"struct.absl::container_internal::internal_compressed_tuple::CompressedTupleImpl" = type { %"struct.absl::container_internal::internal_compressed_tuple::Storage" }
%"struct.absl::container_internal::internal_compressed_tuple::Storage" = type { i64 }
%"class.std::allocator.16" = type { i8 }
%"class.testing::ThrowingValue" = type { i32 }

; Function Attrs: mustprogress nounwind uwtable
define linkonce_odr dso_local noundef nonnull align 8 dereferenceable(8) ptr @_ZNKR4absl18container_internal25internal_compressed_tuple7StorageImLm0ELb0EE3getEv(ptr noundef nonnull align 8 dereferenceable(8) %this) #7 comdat align 2 {
entry:
  %this.addr = alloca ptr, align 8
  store ptr %this, ptr %this.addr, align 8
  %this1 = load ptr, ptr %this.addr, align 8
  %value = getelementptr inbounds %"struct.absl::container_internal::internal_compressed_tuple::Storage", ptr %this1, i32 0, i32 0
  ret ptr %value
}

; Function Attrs: mustprogress uwtable
define linkonce_odr dso_local noundef nonnull align 8 dereferenceable(8) ptr @_ZNKR4absl18container_internal15CompressedTupleIJmSaIN7testing13ThrowingValueILNS2_8TypeSpecE0EEEEEE3getILi0EEERKNS0_25internal_compressed_tuple4ElemIS7_XT_EE4typeEv(ptr noundef nonnull align 8 dereferenceable(8) %this) #4 comdat align 2 {
entry:
  %this.addr = alloca ptr, align 8
  store ptr %this, ptr %this.addr, align 8
  %this1 = load ptr, ptr %this.addr, align 8
  %call = call noundef nonnull align 8 dereferenceable(8) ptr @_ZNKR4absl18container_internal25internal_compressed_tuple7StorageImLm0ELb0EE3getEv(ptr noundef nonnull align 8 dereferenceable(8) %this1)
  ret ptr %call
}

; Function Attrs: mustprogress uwtable
define linkonce_odr dso_local noundef i64 @_ZNK4absl10FixedArrayIN7testing13ThrowingValueILNS1_8TypeSpecE0EEELm25ESaIS4_EE7Storage4sizeEv(ptr noundef nonnull align 8 dereferenceable(120) %this) #4 comdat align 2 {
entry:
  %this.addr = alloca ptr, align 8
  store ptr %this, ptr %this.addr, align 8
  %this1 = load ptr, ptr %this.addr, align 8
  %size_alloc_ = getelementptr inbounds %"class.absl::FixedArray<testing::ThrowingValue<testing::TypeSpec::kEverythingThrows>, 25>::Storage", ptr %this1, i32 0, i32 1
  %call = call noundef nonnull align 8 dereferenceable(8) ptr @_ZNKR4absl18container_internal15CompressedTupleIJmSaIN7testing13ThrowingValueILNS2_8TypeSpecE0EEEEEE3getILi0EEERKNS0_25internal_compressed_tuple4ElemIS7_XT_EE4typeEv(ptr noundef nonnull align 8 dereferenceable(8) %size_alloc_)
  %0 = load i64, ptr %call, align 8
  ret i64 %0
}

; Function Attrs: mustprogress nounwind uwtable
define linkonce_odr dso_local noundef ptr @_ZN4absl10FixedArrayIN7testing13ThrowingValueILNS1_8TypeSpecE0EEELm25ESaIS4_EE11AsValueTypeEPS4_(ptr noundef %ptr) #7 comdat align 2 {
entry:
  %ptr.addr = alloca ptr, align 8
  store ptr %ptr, ptr %ptr.addr, align 8
  %0 = load ptr, ptr %ptr.addr, align 8
  ret ptr %0
}

; Function Attrs: mustprogress nounwind uwtable
define linkonce_odr dso_local noundef ptr @_ZNK4absl10FixedArrayIN7testing13ThrowingValueILNS1_8TypeSpecE0EEELm25ESaIS4_EE7Storage5beginEv(ptr noundef nonnull align 8 dereferenceable(120) %this) #7 comdat align 2 {
entry:
  %this.addr = alloca ptr, align 8
  store ptr %this, ptr %this.addr, align 8
  %this1 = load ptr, ptr %this.addr, align 8
  %data_ = getelementptr inbounds %"class.absl::FixedArray<testing::ThrowingValue<testing::TypeSpec::kEverythingThrows>, 25>::Storage", ptr %this1, i32 0, i32 2
  %0 = load ptr, ptr %data_, align 8
  ret ptr %0
}

; Function Attrs: mustprogress uwtable
define linkonce_odr dso_local noundef i64 @_ZNK4absl10FixedArrayIN7testing13ThrowingValueILNS1_8TypeSpecE0EEELm25ESaIS4_EE4sizeEv(ptr noundef nonnull align 8 dereferenceable(120) %this) #4 comdat align 2 {
entry:
  %this.addr = alloca ptr, align 8
  store ptr %this, ptr %this.addr, align 8
  %this1 = load ptr, ptr %this.addr, align 8
  %storage_ = getelementptr inbounds %"class.absl::FixedArray", ptr %this1, i32 0, i32 0
  %call = call noundef i64 @_ZNK4absl10FixedArrayIN7testing13ThrowingValueILNS1_8TypeSpecE0EEELm25ESaIS4_EE7Storage4sizeEv(ptr noundef nonnull align 8 dereferenceable(120) %storage_)
  ret i64 %call
}

; Function Attrs: mustprogress nounwind uwtable
define linkonce_odr dso_local noundef ptr @_ZN4absl10FixedArrayIN7testing13ThrowingValueILNS1_8TypeSpecE0EEELm25ESaIS4_EE4dataEv(ptr noundef nonnull align 8 dereferenceable(120) %this) #7 comdat align 2 {
entry:
  %this.addr = alloca ptr, align 8
  store ptr %this, ptr %this.addr, align 8
  %this1 = load ptr, ptr %this.addr, align 8
  %storage_ = getelementptr inbounds %"class.absl::FixedArray", ptr %this1, i32 0, i32 0
  %call = call noundef ptr @_ZNK4absl10FixedArrayIN7testing13ThrowingValueILNS1_8TypeSpecE0EEELm25ESaIS4_EE7Storage5beginEv(ptr noundef nonnull align 8 dereferenceable(120) %storage_)
  %call2 = call noundef ptr @_ZN4absl10FixedArrayIN7testing13ThrowingValueILNS1_8TypeSpecE0EEELm25ESaIS4_EE11AsValueTypeEPS4_(ptr noundef %call)
  ret ptr %call2
}

; Function Attrs: mustprogress nounwind uwtable
define linkonce_odr dso_local void @_ZNSt15__new_allocatorIN7testing13ThrowingValueILNS0_8TypeSpecE0EEEED2Ev(ptr noundef nonnull align 1 dereferenceable(1) %this) unnamed_addr #7 comdat align 2 {
entry:
  %this.addr = alloca ptr, align 8
  store ptr %this, ptr %this.addr, align 8
  ret void
}

; Function Attrs: mustprogress nounwind uwtable
define linkonce_odr dso_local void @_ZNSt15__new_allocatorIN7testing13ThrowingValueILNS0_8TypeSpecE0EEEEC2Ev(ptr noundef nonnull align 1 dereferenceable(1) %this) unnamed_addr #7 comdat align 2 {
entry:
  %this.addr = alloca ptr, align 8
  store ptr %this, ptr %this.addr, align 8
  ret void
}

; Function Attrs: mustprogress uwtable
define linkonce_odr dso_local noundef ptr @_ZN4absl10FixedArrayIN7testing13ThrowingValueILNS1_8TypeSpecE0EEELm25ESaIS4_EE3endEv(ptr noundef nonnull align 8 dereferenceable(120) %this) #4 comdat align 2 {
entry:
  %this.addr = alloca ptr, align 8
  store ptr %this, ptr %this.addr, align 8
  %this1 = load ptr, ptr %this.addr, align 8
  %call = call noundef ptr @_ZN4absl10FixedArrayIN7testing13ThrowingValueILNS1_8TypeSpecE0EEELm25ESaIS4_EE4dataEv(ptr noundef nonnull align 8 dereferenceable(120) %this1)
  %call2 = call noundef i64 @_ZNK4absl10FixedArrayIN7testing13ThrowingValueILNS1_8TypeSpecE0EEELm25ESaIS4_EE4sizeEv(ptr noundef nonnull align 8 dereferenceable(120) %this1)
  %add.ptr = getelementptr inbounds %"class.testing::ThrowingValue", ptr %call, i64 %call2
  ret ptr %add.ptr
}

; Function Attrs: mustprogress uwtable
define linkonce_odr dso_local noundef ptr @_ZN4absl10FixedArrayIN7testing13ThrowingValueILNS1_8TypeSpecE0EEELm25ESaIS4_EE5beginEv(ptr noundef nonnull align 8 dereferenceable(120) %this) #4 comdat align 2 {
entry:
  %this.addr = alloca ptr, align 8
  store ptr %this, ptr %this.addr, align 8
  %this1 = load ptr, ptr %this.addr, align 8
  %call = call noundef ptr @_ZN4absl10FixedArrayIN7testing13ThrowingValueILNS1_8TypeSpecE0EEELm25ESaIS4_EE4dataEv(ptr noundef nonnull align 8 dereferenceable(120) %this1)
  ret ptr %call
}

; Function Attrs: mustprogress nounwind uwtable
define linkonce_odr dso_local void @_ZNSaIN7testing13ThrowingValueILNS_8TypeSpecE0EEEED2Ev(ptr noundef nonnull align 1 dereferenceable(1) %this) unnamed_addr #7 comdat align 2 {
entry:
  %this.addr = alloca ptr, align 8
  store ptr %this, ptr %this.addr, align 8
  %this1 = load ptr, ptr %this.addr, align 8
  call void @_ZNSt15__new_allocatorIN7testing13ThrowingValueILNS0_8TypeSpecE0EEEED2Ev(ptr noundef nonnull align 1 dereferenceable(1) %this1) #3
  ret void
}

; Function Attrs: mustprogress nounwind uwtable
define linkonce_odr dso_local void @_ZNSaIN7testing13ThrowingValueILNS_8TypeSpecE0EEEEC2Ev(ptr noundef nonnull align 1 dereferenceable(1) %this) unnamed_addr #7 comdat align 2 {
entry:
  %this.addr = alloca ptr, align 8
  store ptr %this, ptr %this.addr, align 8
  %this1 = load ptr, ptr %this.addr, align 8
  call void @_ZNSt15__new_allocatorIN7testing13ThrowingValueILNS0_8TypeSpecE0EEEEC2Ev(ptr noundef nonnull align 1 dereferenceable(1) %this1) #3
  ret void
}

; Function Attrs: mustprogress uwtable
define internal void @_ZN4absl12_GLOBAL__N_150FixedArrayExceptionSafety_IteratorConstructor_Test8TestBodyEv(ptr noundef nonnull align 8 dereferenceable(16) %this) unnamed_addr #4 align 2 personality ptr @__gxx_personality_v0 {
entry:
  %this.addr = alloca ptr, align 8
  %small = alloca %"class.absl::FixedArray", align 8
  %ref.tmp = alloca %"class.std::allocator.16", align 1
  %exn.slot = alloca ptr, align 8
  %ehselector.slot = alloca i32, align 4
  %ref.tmp2 = alloca ptr, align 8
  %ref.tmp5 = alloca ptr, align 8
  %large = alloca %"class.absl::FixedArray", align 8
  %ref.tmp9 = alloca %"class.std::allocator.16", align 1
  %ref.tmp12 = alloca ptr, align 8
  %ref.tmp16 = alloca ptr, align 8
  store ptr %this, ptr %this.addr, align 8
  call void @_ZNSaIN7testing13ThrowingValueILNS_8TypeSpecE0EEEEC2Ev(ptr noundef nonnull align 1 dereferenceable(1) %ref.tmp) #3
  invoke void @_ZN4absl10FixedArrayIN7testing13ThrowingValueILNS1_8TypeSpecE0EEELm25ESaIS4_EEC2EmRKS5_(ptr noundef nonnull align 8 dereferenceable(120) %small, i64 noundef 12, ptr noundef nonnull align 1 dereferenceable(1) %ref.tmp)
          to label %invoke.cont unwind label %lpad

invoke.cont:                                      ; preds = %entry
  call void @_ZNSaIN7testing13ThrowingValueILNS_8TypeSpecE0EEEED2Ev(ptr noundef nonnull align 1 dereferenceable(1) %ref.tmp) #3
  %call = invoke noundef ptr @_ZN4absl10FixedArrayIN7testing13ThrowingValueILNS1_8TypeSpecE0EEELm25ESaIS4_EE5beginEv(ptr noundef nonnull align 8 dereferenceable(120) %small)
          to label %invoke.cont4 unwind label %lpad3

invoke.cont4:                                     ; preds = %invoke.cont
  store ptr %call, ptr %ref.tmp2, align 8
  %call7 = invoke noundef ptr @_ZN4absl10FixedArrayIN7testing13ThrowingValueILNS1_8TypeSpecE0EEELm25ESaIS4_EE3endEv(ptr noundef nonnull align 8 dereferenceable(120) %small)
          to label %invoke.cont6 unwind label %lpad3

invoke.cont6:                                     ; preds = %invoke.cont4
  store ptr %call7, ptr %ref.tmp5, align 8
  invoke void @_ZN7testing16TestThrowingCtorIN4absl10FixedArrayINS_13ThrowingValueILNS_8TypeSpecE0EEELm25ESaIS5_EEEJPS5_S8_EEEvDpOT0_(ptr noundef nonnull align 8 dereferenceable(8) %ref.tmp2, ptr noundef nonnull align 8 dereferenceable(8) %ref.tmp5)
          to label %invoke.cont8 unwind label %lpad3

invoke.cont8:                                     ; preds = %invoke.cont6
  call void @_ZNSaIN7testing13ThrowingValueILNS_8TypeSpecE0EEEEC2Ev(ptr noundef nonnull align 1 dereferenceable(1) %ref.tmp9) #3
  invoke void @_ZN4absl10FixedArrayIN7testing13ThrowingValueILNS1_8TypeSpecE0EEELm25ESaIS4_EEC2EmRKS5_(ptr noundef nonnull align 8 dereferenceable(120) %large, i64 noundef 50, ptr noundef nonnull align 1 dereferenceable(1) %ref.tmp9)
          to label %invoke.cont11 unwind label %lpad10

invoke.cont11:                                    ; preds = %invoke.cont8
  call void @_ZNSaIN7testing13ThrowingValueILNS_8TypeSpecE0EEEED2Ev(ptr noundef nonnull align 1 dereferenceable(1) %ref.tmp9) #3
  %call15 = invoke noundef ptr @_ZN4absl10FixedArrayIN7testing13ThrowingValueILNS1_8TypeSpecE0EEELm25ESaIS4_EE5beginEv(ptr noundef nonnull align 8 dereferenceable(120) %large)
          to label %invoke.cont14 unwind label %lpad13

invoke.cont14:                                    ; preds = %invoke.cont11
  store ptr %call15, ptr %ref.tmp12, align 8
  %call18 = invoke noundef ptr @_ZN4absl10FixedArrayIN7testing13ThrowingValueILNS1_8TypeSpecE0EEELm25ESaIS4_EE3endEv(ptr noundef nonnull align 8 dereferenceable(120) %large)
          to label %invoke.cont17 unwind label %lpad13

invoke.cont17:                                    ; preds = %invoke.cont14
  store ptr %call18, ptr %ref.tmp16, align 8
  invoke void @_ZN7testing16TestThrowingCtorIN4absl10FixedArrayINS_13ThrowingValueILNS_8TypeSpecE0EEELm25ESaIS5_EEEJPS5_S8_EEEvDpOT0_(ptr noundef nonnull align 8 dereferenceable(8) %ref.tmp12, ptr noundef nonnull align 8 dereferenceable(8) %ref.tmp16)
          to label %invoke.cont19 unwind label %lpad13

invoke.cont19:                                    ; preds = %invoke.cont17
  call void @_ZN4absl10FixedArrayIN7testing13ThrowingValueILNS1_8TypeSpecE0EEELm25ESaIS4_EED2Ev(ptr noundef nonnull align 8 dereferenceable(120) %large) #3
  call void @_ZN4absl10FixedArrayIN7testing13ThrowingValueILNS1_8TypeSpecE0EEELm25ESaIS4_EED2Ev(ptr noundef nonnull align 8 dereferenceable(120) %small) #3
  ret void

lpad:                                             ; preds = %entry
  %0 = landingpad { ptr, i32 }
          cleanup
  %1 = extractvalue { ptr, i32 } %0, 0
  store ptr %1, ptr %exn.slot, align 8
  %2 = extractvalue { ptr, i32 } %0, 1
  store i32 %2, ptr %ehselector.slot, align 4
  call void @_ZNSaIN7testing13ThrowingValueILNS_8TypeSpecE0EEEED2Ev(ptr noundef nonnull align 1 dereferenceable(1) %ref.tmp) #3
  br label %eh.resume

lpad3:                                            ; preds = %invoke.cont6, %invoke.cont4, %invoke.cont
  %3 = landingpad { ptr, i32 }
          cleanup
  %4 = extractvalue { ptr, i32 } %3, 0
  store ptr %4, ptr %exn.slot, align 8
  %5 = extractvalue { ptr, i32 } %3, 1
  store i32 %5, ptr %ehselector.slot, align 4
  br label %ehcleanup

lpad10:                                           ; preds = %invoke.cont8
  %6 = landingpad { ptr, i32 }
          cleanup
  %7 = extractvalue { ptr, i32 } %6, 0
  store ptr %7, ptr %exn.slot, align 8
  %8 = extractvalue { ptr, i32 } %6, 1
  store i32 %8, ptr %ehselector.slot, align 4
  call void @_ZNSaIN7testing13ThrowingValueILNS_8TypeSpecE0EEEED2Ev(ptr noundef nonnull align 1 dereferenceable(1) %ref.tmp9) #3
  br label %ehcleanup

lpad13:                                           ; preds = %invoke.cont17, %invoke.cont14, %invoke.cont11
  %9 = landingpad { ptr, i32 }
          cleanup
  %10 = extractvalue { ptr, i32 } %9, 0
  store ptr %10, ptr %exn.slot, align 8
  %11 = extractvalue { ptr, i32 } %9, 1
  store i32 %11, ptr %ehselector.slot, align 4
  call void @_ZN4absl10FixedArrayIN7testing13ThrowingValueILNS1_8TypeSpecE0EEELm25ESaIS4_EED2Ev(ptr noundef nonnull align 8 dereferenceable(120) %large) #3
  br label %ehcleanup

ehcleanup:                                        ; preds = %lpad13, %lpad10, %lpad3
  call void @_ZN4absl10FixedArrayIN7testing13ThrowingValueILNS1_8TypeSpecE0EEELm25ESaIS4_EED2Ev(ptr noundef nonnull align 8 dereferenceable(120) %small) #3
  br label %eh.resume

eh.resume:                                        ; preds = %ehcleanup, %lpad
  %exn = load ptr, ptr %exn.slot, align 8
  %sel = load i32, ptr %ehselector.slot, align 4
  %lpad.val = insertvalue { ptr, i32 } poison, ptr %exn, 0
  %lpad.val20 = insertvalue { ptr, i32 } %lpad.val, i32 %sel, 1
  resume { ptr, i32 } %lpad.val20
}