; Function Attrs: mustprogress uwtable
define internal void @_ZN4absl12_GLOBAL__N_150FixedArrayExceptionSafety_IteratorConstructor_Test8TestBodyEv(ptr nocapture nonnull readnone align 8 %this) unnamed_addr #3 align 2 personality ptr @__gxx_personality_v0 {
entry:
  %small = alloca %"class.absl::FixedArray", align 8
  %ref.tmp = alloca %"class.std::allocator.16", align 1
  %ref.tmp2 = alloca ptr, align 8
  %ref.tmp5 = alloca ptr, align 8
  %large = alloca %"class.absl::FixedArray", align 8
  %ref.tmp9 = alloca %"class.std::allocator.16", align 1
  %ref.tmp12 = alloca ptr, align 8
  %ref.tmp16 = alloca ptr, align 8
  call void @_ZN4absl10FixedArrayIN7testing13ThrowingValueILNS1_8TypeSpecE0EEELm25ESaIS4_EEC2EmRKS5_(ptr noundef nonnull align 8 dereferenceable(120) %small, i64 noundef 12, ptr noundef nonnull align 1 dereferenceable(1) %ref.tmp)
  %data_.i.i.i = getelementptr inbounds i8, ptr %small, i64 112
  %0 = load ptr, ptr %data_.i.i.i, align 8
  store ptr %0, ptr %ref.tmp2, align 8
  %size_alloc_.i.i.i = getelementptr inbounds i8, ptr %small, i64 104
  %1 = load i64, ptr %size_alloc_.i.i.i, align 8
  %add.ptr.i = getelementptr inbounds %"class.testing::ThrowingValue", ptr %0, i64 %1
  store ptr %add.ptr.i, ptr %ref.tmp5, align 8
  invoke void @_ZN7testing16TestThrowingCtorIN4absl10FixedArrayINS_13ThrowingValueILNS_8TypeSpecE0EEELm25ESaIS5_EEEJPS5_S8_EEEvDpOT0_(ptr noundef nonnull align 8 dereferenceable(8) %ref.tmp2, ptr noundef nonnull align 8 dereferenceable(8) %ref.tmp5)
          to label %invoke.cont8 unwind label %lpad3

invoke.cont8:                                     ; preds = %entry
  invoke void @_ZN4absl10FixedArrayIN7testing13ThrowingValueILNS1_8TypeSpecE0EEELm25ESaIS4_EEC2EmRKS5_(ptr noundef nonnull align 8 dereferenceable(120) %large, i64 noundef 50, ptr noundef nonnull align 1 dereferenceable(1) %ref.tmp9)
          to label %invoke.cont17 unwind label %lpad10

invoke.cont17:                                    ; preds = %invoke.cont8
  %data_.i.i.i4 = getelementptr inbounds i8, ptr %large, i64 112
  %2 = load ptr, ptr %data_.i.i.i4, align 8
  store ptr %2, ptr %ref.tmp12, align 8
  %size_alloc_.i.i.i6 = getelementptr inbounds i8, ptr %large, i64 104
  %3 = load i64, ptr %size_alloc_.i.i.i6, align 8
  %add.ptr.i7 = getelementptr inbounds %"class.testing::ThrowingValue", ptr %2, i64 %3
  store ptr %add.ptr.i7, ptr %ref.tmp16, align 8
  invoke void @_ZN7testing16TestThrowingCtorIN4absl10FixedArrayINS_13ThrowingValueILNS_8TypeSpecE0EEELm25ESaIS5_EEEJPS5_S8_EEEvDpOT0_(ptr noundef nonnull align 8 dereferenceable(8) %ref.tmp12, ptr noundef nonnull align 8 dereferenceable(8) %ref.tmp16)
          to label %invoke.cont19 unwind label %lpad13

invoke.cont19:                                    ; preds = %invoke.cont17
  %4 = load i64, ptr %size_alloc_.i.i.i6, align 8
  %cmp.not9.i = icmp eq i64 %4, 0
  br i1 %cmp.not9.i, label %_ZN4absl10FixedArrayIN7testing13ThrowingValueILNS1_8TypeSpecE0EEELm25ESaIS4_EED2Ev.exit, label %invoke.cont5.i.preheader

invoke.cont5.i.preheader:                         ; preds = %invoke.cont19
  %5 = load ptr, ptr %data_.i.i.i4, align 8
  br label %invoke.cont5.i

invoke.cont5.i:                                   ; preds = %invoke.cont5.i.preheader, %_ZNSt16allocator_traitsISaIN7testing13ThrowingValueILNS0_8TypeSpecE0EEEEE7destroyIS3_EEvRS4_PT_.exit.i
  %cur.010.i = phi ptr [ %incdec.ptr.i, %_ZNSt16allocator_traitsISaIN7testing13ThrowingValueILNS0_8TypeSpecE0EEEEE7destroyIS3_EEvRS4_PT_.exit.i ], [ %5, %invoke.cont5.i.preheader ]
  invoke void @_ZN7testing19exceptions_internal18ConstructorTracker16ObjectDestructedEPv(ptr noundef nonnull %cur.010.i)
          to label %_ZNSt16allocator_traitsISaIN7testing13ThrowingValueILNS0_8TypeSpecE0EEEEE7destroyIS3_EEvRS4_PT_.exit.i unwind label %terminate.lpad.i.i.i.i.i

terminate.lpad.i.i.i.i.i:                         ; preds = %invoke.cont5.i
  %6 = landingpad { ptr, i32 }
          catch ptr null
  %7 = extractvalue { ptr, i32 } %6, 0
  call void @__clang_call_terminate(ptr %7) #21
  unreachable

_ZNSt16allocator_traitsISaIN7testing13ThrowingValueILNS0_8TypeSpecE0EEEEE7destroyIS3_EEvRS4_PT_.exit.i: ; preds = %invoke.cont5.i
  %incdec.ptr.i = getelementptr inbounds i8, ptr %cur.010.i, i64 4
  %8 = load ptr, ptr %data_.i.i.i4, align 8
  %9 = load i64, ptr %size_alloc_.i.i.i6, align 8
  %add.ptr.i.i = getelementptr inbounds %"class.testing::ThrowingValue", ptr %8, i64 %9
  %cmp.not.i = icmp eq ptr %incdec.ptr.i, %add.ptr.i.i
  br i1 %cmp.not.i, label %for.end.i, label %invoke.cont5.i, !llvm.loop !5

for.end.i:                                        ; preds = %_ZNSt16allocator_traitsISaIN7testing13ThrowingValueILNS0_8TypeSpecE0EEEEE7destroyIS3_EEvRS4_PT_.exit.i
  %10 = icmp ult i64 %9, 26
  br i1 %10, label %_ZN4absl10FixedArrayIN7testing13ThrowingValueILNS1_8TypeSpecE0EEELm25ESaIS4_EED2Ev.exit, label %invoke.cont11.i.i

invoke.cont11.i.i:                                ; preds = %for.end.i
  call void @_ZdlPv(ptr noundef %8) #19
  br label %_ZN4absl10FixedArrayIN7testing13ThrowingValueILNS1_8TypeSpecE0EEELm25ESaIS4_EED2Ev.exit

_ZN4absl10FixedArrayIN7testing13ThrowingValueILNS1_8TypeSpecE0EEELm25ESaIS4_EED2Ev.exit: ; preds = %invoke.cont19, %for.end.i, %invoke.cont11.i.i
  %11 = load i64, ptr %size_alloc_.i.i.i, align 8
  %cmp.not9.i11 = icmp eq i64 %11, 0
  br i1 %cmp.not9.i11, label %_ZN4absl10FixedArrayIN7testing13ThrowingValueILNS1_8TypeSpecE0EEELm25ESaIS4_EED2Ev.exit21, label %invoke.cont5.i12.preheader

invoke.cont5.i12.preheader:                       ; preds = %_ZN4absl10FixedArrayIN7testing13ThrowingValueILNS1_8TypeSpecE0EEELm25ESaIS4_EED2Ev.exit
  %12 = load ptr, ptr %data_.i.i.i, align 8
  br label %invoke.cont5.i12

invoke.cont5.i12:                                 ; preds = %invoke.cont5.i12.preheader, %_ZNSt16allocator_traitsISaIN7testing13ThrowingValueILNS0_8TypeSpecE0EEEEE7destroyIS3_EEvRS4_PT_.exit.i15
  %cur.010.i13 = phi ptr [ %incdec.ptr.i16, %_ZNSt16allocator_traitsISaIN7testing13ThrowingValueILNS0_8TypeSpecE0EEEEE7destroyIS3_EEvRS4_PT_.exit.i15 ], [ %12, %invoke.cont5.i12.preheader ]
  invoke void @_ZN7testing19exceptions_internal18ConstructorTracker16ObjectDestructedEPv(ptr noundef nonnull %cur.010.i13)
          to label %_ZNSt16allocator_traitsISaIN7testing13ThrowingValueILNS0_8TypeSpecE0EEEEE7destroyIS3_EEvRS4_PT_.exit.i15 unwind label %terminate.lpad.i.i.i.i.i14

terminate.lpad.i.i.i.i.i14:                       ; preds = %invoke.cont5.i12
  %13 = landingpad { ptr, i32 }
          catch ptr null
  %14 = extractvalue { ptr, i32 } %13, 0
  call void @__clang_call_terminate(ptr %14) #21
  unreachable

_ZNSt16allocator_traitsISaIN7testing13ThrowingValueILNS0_8TypeSpecE0EEEEE7destroyIS3_EEvRS4_PT_.exit.i15: ; preds = %invoke.cont5.i12
  %incdec.ptr.i16 = getelementptr inbounds i8, ptr %cur.010.i13, i64 4
  %15 = load ptr, ptr %data_.i.i.i, align 8
  %16 = load i64, ptr %size_alloc_.i.i.i, align 8
  %add.ptr.i.i17 = getelementptr inbounds %"class.testing::ThrowingValue", ptr %15, i64 %16
  %cmp.not.i18 = icmp eq ptr %incdec.ptr.i16, %add.ptr.i.i17
  br i1 %cmp.not.i18, label %for.end.i19, label %invoke.cont5.i12, !llvm.loop !5

for.end.i19:                                      ; preds = %_ZNSt16allocator_traitsISaIN7testing13ThrowingValueILNS0_8TypeSpecE0EEEEE7destroyIS3_EEvRS4_PT_.exit.i15
  %17 = icmp ult i64 %16, 26
  br i1 %17, label %_ZN4absl10FixedArrayIN7testing13ThrowingValueILNS1_8TypeSpecE0EEELm25ESaIS4_EED2Ev.exit21, label %invoke.cont11.i.i20

invoke.cont11.i.i20:                              ; preds = %for.end.i19
  call void @_ZdlPv(ptr noundef %15) #19
  br label %_ZN4absl10FixedArrayIN7testing13ThrowingValueILNS1_8TypeSpecE0EEELm25ESaIS4_EED2Ev.exit21

_ZN4absl10FixedArrayIN7testing13ThrowingValueILNS1_8TypeSpecE0EEELm25ESaIS4_EED2Ev.exit21: ; preds = %_ZN4absl10FixedArrayIN7testing13ThrowingValueILNS1_8TypeSpecE0EEELm25ESaIS4_EED2Ev.exit, %for.end.i19, %invoke.cont11.i.i20
  ret void

lpad3:                                            ; preds = %entry
  %18 = landingpad { ptr, i32 }
          cleanup
  br label %ehcleanup

lpad10:                                           ; preds = %invoke.cont8
  %19 = landingpad { ptr, i32 }
          cleanup
  br label %ehcleanup

lpad13:                                           ; preds = %invoke.cont17
  %20 = landingpad { ptr, i32 }
          cleanup
  call void @_ZN4absl10FixedArrayIN7testing13ThrowingValueILNS1_8TypeSpecE0EEELm25ESaIS4_EED2Ev(ptr noundef nonnull align 8 dereferenceable(120) %large) #18
  br label %ehcleanup

ehcleanup:                                        ; preds = %lpad13, %lpad10, %lpad3
  %.pn = phi { ptr, i32 } [ %20, %lpad13 ], [ %19, %lpad10 ], [ %18, %lpad3 ]
  call void @_ZN4absl10FixedArrayIN7testing13ThrowingValueILNS1_8TypeSpecE0EEELm25ESaIS4_EED2Ev(ptr noundef nonnull align 8 dereferenceable(120) %small) #18
  resume { ptr, i32 } %.pn
}